Certificate:
    Data:
        Version: 3 (0x2)
        Serial Number:
            8d:7d:f8:a6:87:59:ce:dd:b1:24:43:0b:8c:89:18:ce
        Signature Algorithm: sha256WithRSAEncryption
        Issuer: CN=ChangeMe
        Validity
            Not Before: Jul  6 14:37:52 2025 GMT
            Not After : Oct  9 14:37:52 2027 GMT
        Subject: CN=client
        Subject Public Key Info:
            Public Key Algorithm: rsaEncryption
                RSA Public-Key: (2048 bit)
                Modulus:
                    00:e0:16:47:3a:77:59:6b:2b:66:3d:9d:74:b5:e8:
                    b6:61:e2:41:25:0a:a6:ba:27:e8:b7:c7:97:dc:36:
                    8d:72:f9:e0:7f:be:be:14:08:38:5b:5b:3d:5e:51:
                    bd:b4:9e:d9:3e:5e:71:62:df:a2:ab:4d:d9:e1:0b:
                    3b:58:7d:3b:b3:a9:fd:81:41:37:42:5e:50:5d:ea:
                    ab:e2:79:ff:2f:4e:71:0f:d4:dd:d4:51:3e:08:96:
                    88:73:79:22:c9:5b:8b:49:f1:8c:aa:ff:1c:eb:42:
                    c1:a1:8d:3a:db:48:bd:74:da:19:19:5a:2a:c1:58:
                    dd:54:98:cd:73:36:9b:28:9f:59:7f:7f:4b:c6:34:
                    ec:df:4d:d4:2e:95:d5:1c:98:b6:8d:b2:84:15:54:
                    59:f0:e6:53:82:ac:3d:cd:71:8e:4b:b8:63:96:00:
                    f8:7f:aa:cc:9f:71:e2:11:62:9d:fa:0e:a6:57:8b:
                    9e:73:ec:85:9f:6d:6b:1b:0b:75:ee:1a:f2:f2:f8:
                    9b:82:1a:88:e4:cc:d0:e8:49:75:24:ab:85:a9:6b:
                    5b:5c:c0:2c:16:d8:e8:48:99:00:2f:c3:0d:c7:c6:
                    20:33:57:48:88:40:6d:04:97:d9:12:9d:7f:5e:e5:
                    42:79:64:08:cf:af:00:12:7a:fd:0f:7b:10:63:b8:
                    f3:1b
                Exponent: 65537 (0x10001)
        X509v3 extensions:
            X509v3 Basic Constraints: 
                CA:FALSE
            X509v3 Subject Key Identifier: 
                07:33:2F:4B:D3:9A:60:25:C2:CB:0A:1C:FB:6E:CB:C6:5E:3F:5C:9B
            X509v3 Authority Key Identifier: 
                keyid:70:1D:7E:40:2D:5A:2E:C7:E6:0A:42:67:45:56:72:BD:1F:52:8A:C7
                DirName:/CN=ChangeMe
                serial:4C:B7:E9:EF:5F:D7:70:FF:EE:1B:EE:4D:39:38:8A:71:CB:89:D5:33

            X509v3 Extended Key Usage: 
                TLS Web Client Authentication
            X509v3 Key Usage: 
                Digital Signature
    Signature Algorithm: sha256WithRSAEncryption
         6e:87:b0:c6:59:4c:f2:9f:39:5b:81:00:5e:09:b6:3b:9c:c2:
         66:50:06:b7:04:3b:30:53:ac:1d:11:e2:9d:dc:2b:15:17:1c:
         5b:c9:d8:f8:ca:b0:b6:90:3c:fa:cf:04:e0:db:e4:b2:95:d8:
         46:dd:de:55:f8:db:89:3b:eb:a3:76:7e:94:a3:20:5e:ec:c8:
         fe:e0:4c:05:45:7b:9c:2e:05:e5:4e:b1:ef:8d:eb:a2:66:b6:
         44:75:bd:01:1a:46:1d:5b:73:3a:da:d6:6b:71:4e:93:ff:91:
         e5:b1:51:6c:d0:d4:10:9c:cc:1c:60:f3:6f:da:d2:ea:03:10:
         e3:03:cb:15:f3:1f:16:25:fb:0a:38:3f:20:ad:64:a4:db:3c:
         2b:8b:c5:2e:02:09:e9:3f:96:45:be:c0:65:01:01:dd:7c:f7:
         bd:f2:bc:d4:e2:d7:a7:67:97:fe:ee:c3:93:bb:21:59:37:8b:
         5c:49:5a:c7:4c:90:49:a4:7f:6b:f1:5a:56:13:a3:e3:32:80:
         46:27:2a:5b:d8:25:e1:b7:1d:48:7a:5f:75:2b:fd:b6:4a:80:
         bd:07:5c:f0:a3:e4:72:9e:f7:d2:0c:ff:ee:e1:30:27:86:f1:
         c4:08:a3:9d:bb:71:b3:bc:84:33:2b:ba:41:c5:d7:e1:e0:d1:
         46:3b:71:42
-----BEGIN CERTIFICATE-----
MIIDTzCCAjegAwIBAgIRAI19+KaHWc7dsSRDC4yJGM4wDQYJKoZIhvcNAQELBQAw
EzERMA8GA1UEAwwIQ2hhbmdlTWUwHhcNMjUwNzA2MTQzNzUyWhcNMjcxMDA5MTQz
NzUyWjARMQ8wDQYDVQQDDAZjbGllbnQwggEiMA0GCSqGSIb3DQEBAQUAA4IBDwAw
ggEKAoIBAQDgFkc6d1lrK2Y9nXS16LZh4kElCqa6J+i3x5fcNo1y+eB/vr4UCDhb
Wz1eUb20ntk+XnFi36KrTdnhCztYfTuzqf2BQTdCXlBd6qvief8vTnEP1N3UUT4I
lohzeSLJW4tJ8Yyq/xzrQsGhjTrbSL102hkZWirBWN1UmM1zNpson1l/f0vGNOzf
TdQuldUcmLaNsoQVVFnw5lOCrD3NcY5LuGOWAPh/qsyfceIRYp36DqZXi55z7IWf
bWsbC3XuGvLy+JuCGojkzNDoSXUkq4Wpa1tcwCwW2OhImQAvww3HxiAzV0iIQG0E
l9kSnX9e5UJ5ZAjPrwASev0PexBjuPMbAgMBAAGjgZ8wgZwwCQYDVR0TBAIwADAd
BgNVHQ4EFgQUBzMvS9OaYCXCywoc+27Lxl4/XJswTgYDVR0jBEcwRYAUcB1+QC1a
LsfmCkJnRVZyvR9SisehF6QVMBMxETAPBgNVBAMMCENoYW5nZU1lghRMt+nvX9dw
/+4b7k05OIpxy4nVMzATBgNVHSUEDDAKBggrBgEFBQcDAjALBgNVHQ8EBAMCB4Aw
DQYJKoZIhvcNAQELBQADggEBAG6HsMZZTPKfOVuBAF4JtjucwmZQBrcEOzBTrB0R
4p3cKxUXHFvJ2PjKsLaQPPrPBODb5LKV2Ebd3lX424k766N2fpSjIF7syP7gTAVF
e5wuBeVOse+N66JmtkR1vQEaRh1bczra1mtxTpP/keWxUWzQ1BCczBxg82/a0uoD
EOMDyxXzHxYl+wo4PyCtZKTbPCuLxS4CCek/lkW+wGUBAd18973yvNTi16dnl/7u
w5O7IVk3i1xJWsdMkEmkf2vxWlYTo+MygEYnKlvYJeG3HUh6X3Ur/bZKgL0HXPCj
5HKe99IM/+7hMCeG8cQIo527cbO8hDMrukHF1+Hg0UY7cUI=
-----END CERTIFICATE-----
