Certificate:
    Data:
        Version: 3 (0x2)
        Serial Number:
            61:7b:f8:85:12:21:37:d6:01:0f:44:24:84:4e:43:40
        Signature Algorithm: sha256WithRSAEncryption
        Issuer: CN=ChangeMe
        Validity
            Not Before: Jul  6 14:37:51 2025 GMT
            Not After : Oct  9 14:37:51 2027 GMT
        Subject: CN=192.168.56.103
        Subject Public Key Info:
            Public Key Algorithm: rsaEncryption
                RSA Public-Key: (2048 bit)
                Modulus:
                    00:ad:de:bc:8c:5b:cc:12:0c:77:2c:1f:3f:3c:b5:
                    e2:79:91:11:f4:ac:65:09:f2:a0:e1:9b:f0:c1:4f:
                    63:8b:db:6a:14:44:5e:c0:30:db:da:37:4f:89:d2:
                    ac:47:16:b4:79:ac:56:0f:4e:5c:2e:93:56:f0:af:
                    22:e9:09:9e:aa:b9:ad:5c:b8:fc:0a:3c:0e:40:fe:
                    e9:43:d9:4c:45:43:f3:14:4e:77:c9:7b:15:21:52:
                    9f:32:51:6f:9b:19:84:ad:8c:61:23:15:20:88:d2:
                    6b:54:2a:ea:5f:c3:13:12:72:56:5e:4e:f1:53:ab:
                    e4:fd:e1:b1:68:25:55:05:e0:f2:12:06:da:74:74:
                    dd:88:c5:d7:f7:25:e2:3c:ef:60:d9:f6:b2:3c:07:
                    65:27:39:77:23:0f:fc:65:61:97:fc:6a:23:23:68:
                    df:1d:ce:23:58:78:a1:9d:18:50:e2:c7:db:c6:a9:
                    75:f6:15:aa:52:c9:3e:2e:5f:57:ae:3c:a9:46:33:
                    3e:fd:7c:4c:d4:73:a4:2c:e7:8b:ed:e6:f5:0d:d4:
                    00:0d:cd:98:1c:25:34:e5:15:5e:cd:20:dc:64:78:
                    34:9c:d0:b2:31:8d:be:31:a2:64:46:f7:f7:45:73:
                    51:d9:8f:6d:64:30:89:bf:e3:1e:ff:5c:3f:55:6b:
                    a5:0d
                Exponent: 65537 (0x10001)
        X509v3 extensions:
            X509v3 Basic Constraints: 
                CA:FALSE
            X509v3 Subject Key Identifier: 
                24:21:CF:5D:8F:F1:15:27:F0:BE:79:99:27:E7:FD:67:D7:AC:ED:DD
            X509v3 Authority Key Identifier: 
                keyid:70:1D:7E:40:2D:5A:2E:C7:E6:0A:42:67:45:56:72:BD:1F:52:8A:C7
                DirName:/CN=ChangeMe
                serial:4C:B7:E9:EF:5F:D7:70:FF:EE:1B:EE:4D:39:38:8A:71:CB:89:D5:33

            X509v3 Extended Key Usage: 
                TLS Web Server Authentication
            X509v3 Key Usage: 
                Digital Signature, Key Encipherment
            X509v3 Subject Alternative Name: 
                IP Address:192.168.56.103
    Signature Algorithm: sha256WithRSAEncryption
         43:ce:01:c8:90:8d:fa:5c:65:d0:a9:48:90:63:f1:fb:3f:79:
         10:9e:77:8c:a9:f1:b9:90:b3:76:8c:65:e2:71:e2:c8:5f:22:
         90:24:7b:07:a3:ac:9f:a6:1e:5d:ef:8f:3b:3c:f0:97:71:9a:
         a5:35:a9:bd:0e:43:80:7a:c9:b2:0a:6d:9f:fd:1b:7c:1a:9c:
         5d:95:bd:37:16:e1:dc:eb:ac:04:a3:e1:b4:e9:ae:1c:53:b7:
         1d:f1:a1:47:e1:f5:a3:6d:ab:0b:49:06:f2:8a:7c:2f:a7:db:
         21:5b:14:b9:df:23:fc:dd:92:22:71:74:34:90:26:5c:15:70:
         2a:97:bd:05:f1:ac:1d:cf:71:29:45:b0:f0:99:6c:2a:ce:96:
         2a:f9:2b:b4:fd:3a:b5:78:5b:66:d1:01:22:2e:b9:38:87:45:
         97:03:47:a3:96:4b:29:4a:55:49:75:a9:ad:50:e0:47:96:8b:
         9a:62:fd:39:4e:78:a0:22:71:d2:92:8f:77:03:43:11:73:f0:
         ac:a5:2a:95:80:af:12:dd:f7:89:0d:54:1c:cf:de:c7:24:cd:
         8f:40:8c:a3:38:a6:a7:4a:86:1e:75:f3:a1:1a:87:68:6f:65:
         0e:08:45:18:b6:51:4f:db:89:8b:92:66:4c:77:ac:93:29:7d:
         9b:c3:39:15
-----BEGIN CERTIFICATE-----
MIIDZzCCAk+gAwIBAgIQYXv4hRIhN9YBD0QkhE5DQDANBgkqhkiG9w0BAQsFADAT
MREwDwYDVQQDDAhDaGFuZ2VNZTAeFw0yNTA3MDYxNDM3NTFaFw0yNzEwMDkxNDM3
NTFaMBkxFzAVBgNVBAMMDjE5Mi4xNjguNTYuMTAzMIIBIjANBgkqhkiG9w0BAQEF
AAOCAQ8AMIIBCgKCAQEArd68jFvMEgx3LB8/PLXieZER9KxlCfKg4ZvwwU9ji9tq
FERewDDb2jdPidKsRxa0eaxWD05cLpNW8K8i6QmeqrmtXLj8CjwOQP7pQ9lMRUPz
FE53yXsVIVKfMlFvmxmErYxhIxUgiNJrVCrqX8MTEnJWXk7xU6vk/eGxaCVVBeDy
EgbadHTdiMXX9yXiPO9g2fayPAdlJzl3Iw/8ZWGX/GojI2jfHc4jWHihnRhQ4sfb
xql19hWqUsk+Ll9XrjypRjM+/XxM1HOkLOeL7eb1DdQADc2YHCU05RVezSDcZHg0
nNCyMY2+MaJkRvf3RXNR2Y9tZDCJv+Me/1w/VWulDQIDAQABo4GwMIGtMAkGA1Ud
EwQCMAAwHQYDVR0OBBYEFCQhz12P8RUn8L55mSfn/WfXrO3dME4GA1UdIwRHMEWA
FHAdfkAtWi7H5gpCZ0VWcr0fUorHoRekFTATMREwDwYDVQQDDAhDaGFuZ2VNZYIU
TLfp71/XcP/uG+5NOTiKccuJ1TMwEwYDVR0lBAwwCgYIKwYBBQUHAwEwCwYDVR0P
BAQDAgWgMA8GA1UdEQQIMAaHBMCoOGcwDQYJKoZIhvcNAQELBQADggEBAEPOAciQ
jfpcZdCpSJBj8fs/eRCed4yp8bmQs3aMZeJx4shfIpAkewejrJ+mHl3vjzs88Jdx
mqU1qb0OQ4B6ybIKbZ/9G3wanF2VvTcW4dzrrASj4bTprhxTtx3xoUfh9aNtqwtJ
BvKKfC+n2yFbFLnfI/zdkiJxdDSQJlwVcCqXvQXxrB3PcSlFsPCZbCrOlir5K7T9
OrV4W2bRASIuuTiHRZcDR6OWSylKVUl1qa1Q4EeWi5pi/TlOeKAicdKSj3cDQxFz
8KylKpWArxLd94kNVBzP3sckzY9AjKM4pqdKhh5186Eah2hvZQ4IRRi2UU/biYuS
Zkx3rJMpfZvDORU=
-----END CERTIFICATE-----
